target datalayout = "e-m:e-p270:32:32-p271:32:32-p272:64:64-i64:64-i128:128-f80:128-n8:16:32:64-S128"
target triple = "x86_64-pc-linux-gnu"

%"class.glslang::TPpContext::TokenStream::Token" = type { i32, i8, i64, %"class.std::__cxx11::basic_string" }
%"class.std::__cxx11::basic_string" = type { %"struct.std::__cxx11::basic_string<char, std::char_traits<char>, glslang::pool_allocator<char>>::_Alloc_hider", i64, %union.anon }
%"struct.std::__cxx11::basic_string<char, std::char_traits<char>, glslang::pool_allocator<char>>::_Alloc_hider" = type { %"class.glslang::pool_allocator", ptr }
%"class.glslang::pool_allocator" = type { ptr }
%union.anon = type { i64, [8 x i8] }
%"class.glslang::TPpContext::TokenStream" = type { %"class.glslang::TVector", i64 }
%"class.glslang::TVector" = type { %"class.std::vector" }
%"class.std::vector" = type { %"struct.std::_Vector_base" }
%"struct.std::_Vector_base" = type { %"struct.std::_Vector_base<glslang::TPpContext::TokenStream::Token, glslang::pool_allocator<glslang::TPpContext::TokenStream::Token>>::_Vector_impl" }
%"struct.std::_Vector_base<glslang::TPpContext::TokenStream::Token, glslang::pool_allocator<glslang::TPpContext::TokenStream::Token>>::_Vector_impl" = type { %"class.glslang::pool_allocator.1", %"struct.std::_Vector_base<glslang::TPpContext::TokenStream::Token, glslang::pool_allocator<glslang::TPpContext::TokenStream::Token>>::_Vector_impl_data" }
%"class.glslang::pool_allocator.1" = type { ptr }
%"struct.std::_Vector_base<glslang::TPpContext::TokenStream::Token, glslang::pool_allocator<glslang::TPpContext::TokenStream::Token>>::_Vector_impl_data" = type { ptr, ptr, ptr }

; Function Attrs: mustprogress nounwind uwtable
define linkonce_odr noundef i64 @_ZNKSt6vectorIN7glslang10TPpContext11TokenStream5TokenENS0_14pool_allocatorIS3_EEE4sizeEv(ptr noundef nonnull align 8 dereferenceable(32) %0) #0 comdat align 2 {
  %2 = alloca ptr, align 8
  store ptr %0, ptr %2, align 8
  %3 = load ptr, ptr %2, align 8
  %4 = getelementptr inbounds %"struct.std::_Vector_base", ptr %3, i32 0, i32 0
  %5 = getelementptr inbounds i8, ptr %4, i64 8
  %6 = getelementptr inbounds %"struct.std::_Vector_base<glslang::TPpContext::TokenStream::Token, glslang::pool_allocator<glslang::TPpContext::TokenStream::Token>>::_Vector_impl_data", ptr %5, i32 0, i32 1
  %7 = load ptr, ptr %6, align 8
  %8 = getelementptr inbounds %"struct.std::_Vector_base", ptr %3, i32 0, i32 0
  %9 = getelementptr inbounds i8, ptr %8, i64 8
  %10 = getelementptr inbounds %"struct.std::_Vector_base<glslang::TPpContext::TokenStream::Token, glslang::pool_allocator<glslang::TPpContext::TokenStream::Token>>::_Vector_impl_data", ptr %9, i32 0, i32 0
  %11 = load ptr, ptr %10, align 8
  %12 = ptrtoint ptr %7 to i64
  %13 = ptrtoint ptr %11 to i64
  %14 = sub i64 %12, %13
  %15 = sdiv exact i64 %14, 56
  ret i64 %15
}

; Function Attrs: mustprogress nounwind uwtable
define linkonce_odr noundef zeroext i1 @_ZNK7glslang10TPpContext11TokenStream5Token6isAtomEi(ptr noundef nonnull align 8 dereferenceable(56) %0, i32 noundef %1) #0 comdat align 2 {
  %3 = alloca ptr, align 8
  %4 = alloca i32, align 4
  store ptr %0, ptr %3, align 8
  store i32 %1, ptr %4, align 4
  %5 = load ptr, ptr %3, align 8
  %6 = getelementptr inbounds %"class.glslang::TPpContext::TokenStream::Token", ptr %5, i32 0, i32 0
  %7 = load i32, ptr %6, align 8
  %8 = load i32, ptr %4, align 4
  %9 = icmp eq i32 %7, %8
  ret i1 %9
}

; Function Attrs: mustprogress nounwind uwtable
define linkonce_odr noundef nonnull align 8 dereferenceable(56) ptr @_ZNSt6vectorIN7glslang10TPpContext11TokenStream5TokenENS0_14pool_allocatorIS3_EEEixEm(ptr noundef nonnull align 8 dereferenceable(32) %0, i64 noundef %1) #0 comdat align 2 {
  %3 = alloca ptr, align 8
  %4 = alloca i64, align 8
  store ptr %0, ptr %3, align 8
  store i64 %1, ptr %4, align 8
  %5 = load ptr, ptr %3, align 8
  %6 = getelementptr inbounds %"struct.std::_Vector_base", ptr %5, i32 0, i32 0
  %7 = getelementptr inbounds i8, ptr %6, i64 8
  %8 = getelementptr inbounds %"struct.std::_Vector_base<glslang::TPpContext::TokenStream::Token, glslang::pool_allocator<glslang::TPpContext::TokenStream::Token>>::_Vector_impl_data", ptr %7, i32 0, i32 0
  %9 = load ptr, ptr %8, align 8
  %10 = load i64, ptr %4, align 8
  %11 = getelementptr inbounds %"class.glslang::TPpContext::TokenStream::Token", ptr %9, i64 %10
  ret ptr %11
}

; Function Attrs: mustprogress nounwind uwtable
define linkonce_odr noundef zeroext i1 @_ZN7glslang10TPpContext11TokenStream5atEndEv(ptr noundef nonnull align 8 dereferenceable(40) %0) #0 comdat align 2 {
  %2 = alloca ptr, align 8
  store ptr %0, ptr %2, align 8
  %3 = load ptr, ptr %2, align 8
  %4 = getelementptr inbounds %"class.glslang::TPpContext::TokenStream", ptr %3, i32 0, i32 1
  %5 = load i64, ptr %4, align 8
  %6 = getelementptr inbounds %"class.glslang::TPpContext::TokenStream", ptr %3, i32 0, i32 0
  %7 = call noundef i64 @_ZNKSt6vectorIN7glslang10TPpContext11TokenStream5TokenENS0_14pool_allocatorIS3_EEE4sizeEv(ptr noundef nonnull align 8 dereferenceable(32) %6) #8
  %8 = icmp uge i64 %5, %7
  ret i1 %8
}

; Function Attrs: mustprogress nounwind uwtable
define linkonce_odr noundef zeroext i1 @_ZN7glslang10TPpContext11TokenStream9peekTokenEi(ptr noundef nonnull align 8 dereferenceable(40) %0, i32 noundef %1) #0 comdat align 2 {
  %3 = alloca ptr, align 8
  %4 = alloca i32, align 4
  store ptr %0, ptr %3, align 8
  store i32 %1, ptr %4, align 4
  %5 = load ptr, ptr %3, align 8
  %6 = call noundef zeroext i1 @_ZN7glslang10TPpContext11TokenStream5atEndEv(ptr noundef nonnull align 8 dereferenceable(40) %5)
  br i1 %6, label %14, label %7

7:                                                ; preds = %2
  %8 = getelementptr inbounds %"class.glslang::TPpContext::TokenStream", ptr %5, i32 0, i32 0
  %9 = getelementptr inbounds %"class.glslang::TPpContext::TokenStream", ptr %5, i32 0, i32 1
  %10 = load i64, ptr %9, align 8
  %11 = call noundef nonnull align 8 dereferenceable(56) ptr @_ZNSt6vectorIN7glslang10TPpContext11TokenStream5TokenENS0_14pool_allocatorIS3_EEEixEm(ptr noundef nonnull align 8 dereferenceable(32) %8, i64 noundef %10) #8
  %12 = load i32, ptr %4, align 4
  %13 = call noundef zeroext i1 @_ZNK7glslang10TPpContext11TokenStream5Token6isAtomEi(ptr noundef nonnull align 8 dereferenceable(56) %11, i32 noundef %12)
  br label %14

14:                                               ; preds = %7, %2
  %15 = phi i1 [ false, %2 ], [ %13, %7 ]
  ret i1 %15
}

; Function Attrs: mustprogress nounwind uwtable
define noundef zeroext i1 @_ZN7glslang10TPpContext11TokenStream22peekUntokenizedPastingEv(ptr noundef nonnull align 8 dereferenceable(40) %0) #0 align 2 {
  %2 = alloca ptr, align 8
  %3 = alloca i64, align 8
  %4 = alloca i8, align 1
  store ptr %0, ptr %2, align 8
  %5 = load ptr, ptr %2, align 8
  %6 = getelementptr inbounds %"class.glslang::TPpContext::TokenStream", ptr %5, i32 0, i32 1
  %7 = load i64, ptr %6, align 8
  store i64 %7, ptr %3, align 8
  br label %8

8:                                                ; preds = %10, %1
  %9 = call noundef zeroext i1 @_ZN7glslang10TPpContext11TokenStream9peekTokenEi(ptr noundef nonnull align 8 dereferenceable(40) %5, i32 noundef 32)
  br i1 %9, label %10, label %14

10:                                               ; preds = %8
  %11 = getelementptr inbounds %"class.glslang::TPpContext::TokenStream", ptr %5, i32 0, i32 1
  %12 = load i64, ptr %11, align 8
  %13 = add i64 %12, 1
  store i64 %13, ptr %11, align 8
  br label %8, !llvm.loop !7

14:                                               ; preds = %8
  store i8 0, ptr %4, align 1
  %15 = call noundef zeroext i1 @_ZN7glslang10TPpContext11TokenStream9peekTokenEi(ptr noundef nonnull align 8 dereferenceable(40) %5, i32 noundef 35)
  br i1 %15, label %16, label %23

16:                                               ; preds = %14
  %17 = getelementptr inbounds %"class.glslang::TPpContext::TokenStream", ptr %5, i32 0, i32 1
  %18 = load i64, ptr %17, align 8
  %19 = add i64 %18, 1
  store i64 %19, ptr %17, align 8
  %20 = call noundef zeroext i1 @_ZN7glslang10TPpContext11TokenStream9peekTokenEi(ptr noundef nonnull align 8 dereferenceable(40) %5, i32 noundef 35)
  br i1 %20, label %21, label %22

21:                                               ; preds = %16
  store i8 1, ptr %4, align 1
  br label %22

22:                                               ; preds = %21, %16
  br label %23

23:                                               ; preds = %22, %14
  %24 = load i64, ptr %3, align 8
  %25 = getelementptr inbounds %"class.glslang::TPpContext::TokenStream", ptr %5, i32 0, i32 1
  store i64 %24, ptr %25, align 8
  %26 = load i8, ptr %4, align 1
  %27 = trunc i8 %26 to i1
  ret i1 %27
}