; Function Attrs: mustprogress nofree norecurse nosync nounwind memory(read, argmem: readwrite, inaccessiblemem: none) uwtable
define noundef zeroext i1 @_ZN7glslang10TPpContext11TokenStream22peekUntokenizedPastingEv(ptr noundef nonnull align 8 captures(none) dereferenceable(40) %0) local_unnamed_addr #3 align 2 {
  %2 = getelementptr inbounds nuw i8, ptr %0, i64 32
  %3 = load i64, ptr %2, align 8
  %4 = getelementptr inbounds nuw i8, ptr %0, i64 8
  %5 = getelementptr inbounds nuw i8, ptr %0, i64 16
  %6 = load ptr, ptr %5, align 8
  %7 = load ptr, ptr %4, align 8
  %8 = ptrtoint ptr %6 to i64
  %9 = ptrtoint ptr %7 to i64
  %10 = sub i64 %8, %9
  %11 = sdiv exact i64 %10, 56
  %.not.i11 = icmp ult i64 %3, %11
  br i1 %.not.i11, label %_ZN7glslang10TPpContext11TokenStream9peekTokenEi.exit, label %_ZN7glslang10TPpContext11TokenStream9peekTokenEi.exit5

_ZN7glslang10TPpContext11TokenStream9peekTokenEi.exit: ; preds = %1, %15
  %12 = phi i64 [ %16, %15 ], [ %3, %1 ]
  %13 = getelementptr inbounds %"class.glslang::TPpContext::TokenStream::Token", ptr %7, i64 %12
  %14 = load i32, ptr %13, align 8
  switch i32 %14, label %_ZN7glslang10TPpContext11TokenStream9peekTokenEi.exit5 [
    i32 32, label %15
    i32 35, label %17
  ]

15:                                               ; preds = %_ZN7glslang10TPpContext11TokenStream9peekTokenEi.exit
  %16 = add i64 %12, 1
  store i64 %16, ptr %2, align 8
  %exitcond.not = icmp eq i64 %16, %11
  br i1 %exitcond.not, label %_ZN7glslang10TPpContext11TokenStream9peekTokenEi.exit5, label %_ZN7glslang10TPpContext11TokenStream9peekTokenEi.exit, !llvm.loop !16

17:                                               ; preds = %_ZN7glslang10TPpContext11TokenStream9peekTokenEi.exit
  %18 = add nuw i64 %12, 1
  store i64 %18, ptr %2, align 8
  %.not.i4 = icmp ult i64 %18, %11
  br i1 %.not.i4, label %19, label %_ZN7glslang10TPpContext11TokenStream9peekTokenEi.exit5

19:                                               ; preds = %17
  %20 = getelementptr inbounds %"class.glslang::TPpContext::TokenStream::Token", ptr %7, i64 %18
  %21 = load i32, ptr %20, align 8
  %22 = icmp eq i32 %21, 35
  br label %_ZN7glslang10TPpContext11TokenStream9peekTokenEi.exit5

_ZN7glslang10TPpContext11TokenStream9peekTokenEi.exit5: ; preds = %15, %_ZN7glslang10TPpContext11TokenStream9peekTokenEi.exit, %1, %19, %17
  %.0 = phi i1 [ false, %17 ], [ %22, %19 ], [ false, %1 ], [ false, %_ZN7glslang10TPpContext11TokenStream9peekTokenEi.exit ], [ false, %15 ]
  store i64 %3, ptr %2, align 8
  ret i1 %.0
}